; Function Attrs: nounwind sspstrong uwtable
define dso_local void @job_txn_unref(ptr noundef %0) local_unnamed_addr #0 {
  %2 = load atomic i64, ptr @qemu_mutex_lock_func monotonic, align 8
  %3 = inttoptr i64 %2 to ptr
  tail call void %3(ptr noundef nonnull @job_mutex, ptr noundef nonnull @.str.29, i32 noundef 56) #15
  %.not.i = icmp eq ptr %0, null
  br i1 %.not.i, label %glib_autoptr_cleanup_QemuLockable.exit, label %4

4:                                                ; preds = %1
  %5 = getelementptr inbounds nuw i8, ptr %0, i64 16
  %6 = load i32, ptr %5, align 8
  %7 = add i32 %6, -1
  store i32 %7, ptr %5, align 8
  %8 = icmp eq i32 %7, 0
  br i1 %8, label %9, label %glib_autoptr_cleanup_QemuLockable.exit

9:                                                ; preds = %4
  tail call void @g_free(ptr noundef nonnull %0) #15
  br label %glib_autoptr_cleanup_QemuLockable.exit

glib_autoptr_cleanup_QemuLockable.exit:           ; preds = %1, %4, %9
  tail call void @qemu_mutex_unlock_impl(ptr noundef nonnull @job_mutex, ptr noundef nonnull @.str.29, i32 noundef 56) #15
  ret void
}